target datalayout = "e-m:e-p270:32:32-p271:32:32-p272:64:64-i64:64-i128:128-f80:128-n8:16:32:64-S128"
target triple = "x86_64-pc-linux-gnu"

%struct.AVTreeNode = type { [2 x ptr], ptr, i32 }

; Function Attrs: nounwind uwtable
define ptr @av_tree_find(ptr noundef %0, ptr noundef %1, ptr noundef %2, ptr noundef %3) #0 {
  %5 = alloca ptr, align 8
  %6 = alloca ptr, align 8
  %7 = alloca ptr, align 8
  %8 = alloca ptr, align 8
  %9 = alloca ptr, align 8
  %10 = alloca i32, align 4
  %11 = alloca i32, align 4
  store ptr %0, ptr %6, align 8, !tbaa !4
  store ptr %1, ptr %7, align 8, !tbaa !9
  store ptr %2, ptr %8, align 8, !tbaa !9
  store ptr %3, ptr %9, align 8, !tbaa !10
  %12 = load ptr, ptr %6, align 8, !tbaa !4
  %13 = icmp ne ptr %12, null
  br i1 %13, label %14, label %73

14:                                               ; preds = %4
  call void @llvm.lifetime.start.p0(i64 4, ptr %10) #3
  %15 = load ptr, ptr %8, align 8, !tbaa !9
  %16 = load ptr, ptr %7, align 8, !tbaa !9
  %17 = load ptr, ptr %6, align 8, !tbaa !4
  %18 = getelementptr inbounds nuw %struct.AVTreeNode, ptr %17, i32 0, i32 1
  %19 = load ptr, ptr %18, align 8, !tbaa !12
  %20 = call i32 %15(ptr noundef %16, ptr noundef %19)
  store i32 %20, ptr %10, align 4, !tbaa !15
  %21 = load i32, ptr %10, align 4, !tbaa !15
  %22 = icmp ne i32 %21, 0
  br i1 %22, label %23, label %48

23:                                               ; preds = %14
  %24 = load ptr, ptr %9, align 8, !tbaa !10
  %25 = icmp ne ptr %24, null
  br i1 %25, label %26, label %35

26:                                               ; preds = %23
  %27 = load ptr, ptr %6, align 8, !tbaa !4
  %28 = getelementptr inbounds nuw %struct.AVTreeNode, ptr %27, i32 0, i32 1
  %29 = load ptr, ptr %28, align 8, !tbaa !12
  %30 = load ptr, ptr %9, align 8, !tbaa !10
  %31 = load i32, ptr %10, align 4, !tbaa !15
  %32 = lshr i32 %31, 31
  %33 = zext i32 %32 to i64
  %34 = getelementptr inbounds nuw ptr, ptr %30, i64 %33
  store ptr %29, ptr %34, align 8, !tbaa !9
  br label %35

35:                                               ; preds = %26, %23
  %36 = load ptr, ptr %6, align 8, !tbaa !4
  %37 = getelementptr inbounds nuw %struct.AVTreeNode, ptr %36, i32 0, i32 0
  %38 = load i32, ptr %10, align 4, !tbaa !15
  %39 = lshr i32 %38, 31
  %40 = xor i32 %39, 1
  %41 = zext i32 %40 to i64
  %42 = getelementptr inbounds nuw [2 x ptr], ptr %37, i64 0, i64 %41
  %43 = load ptr, ptr %42, align 8, !tbaa !4
  %44 = load ptr, ptr %7, align 8, !tbaa !9
  %45 = load ptr, ptr %8, align 8, !tbaa !9
  %46 = load ptr, ptr %9, align 8, !tbaa !10
  %47 = call ptr @av_tree_find(ptr noundef %43, ptr noundef %44, ptr noundef %45, ptr noundef %46)
  store ptr %47, ptr %5, align 8
  store i32 1, ptr %11, align 4
  br label %72

48:                                               ; preds = %14
  %49 = load ptr, ptr %9, align 8, !tbaa !10
  %50 = icmp ne ptr %49, null
  br i1 %50, label %51, label %68

51:                                               ; preds = %48
  %52 = load ptr, ptr %6, align 8, !tbaa !4
  %53 = getelementptr inbounds nuw %struct.AVTreeNode, ptr %52, i32 0, i32 0
  %54 = getelementptr inbounds [2 x ptr], ptr %53, i64 0, i64 0
  %55 = load ptr, ptr %54, align 8, !tbaa !4
  %56 = load ptr, ptr %7, align 8, !tbaa !9
  %57 = load ptr, ptr %8, align 8, !tbaa !9
  %58 = load ptr, ptr %9, align 8, !tbaa !10
  %59 = call ptr @av_tree_find(ptr noundef %55, ptr noundef %56, ptr noundef %57, ptr noundef %58)
  %60 = load ptr, ptr %6, align 8, !tbaa !4
  %61 = getelementptr inbounds nuw %struct.AVTreeNode, ptr %60, i32 0, i32 0
  %62 = getelementptr inbounds [2 x ptr], ptr %61, i64 0, i64 1
  %63 = load ptr, ptr %62, align 8, !tbaa !4
  %64 = load ptr, ptr %7, align 8, !tbaa !9
  %65 = load ptr, ptr %8, align 8, !tbaa !9
  %66 = load ptr, ptr %9, align 8, !tbaa !10
  %67 = call ptr @av_tree_find(ptr noundef %63, ptr noundef %64, ptr noundef %65, ptr noundef %66)
  br label %68

68:                                               ; preds = %51, %48
  %69 = load ptr, ptr %6, align 8, !tbaa !4
  %70 = getelementptr inbounds nuw %struct.AVTreeNode, ptr %69, i32 0, i32 1
  %71 = load ptr, ptr %70, align 8, !tbaa !12
  store ptr %71, ptr %5, align 8
  store i32 1, ptr %11, align 4
  br label %72

72:                                               ; preds = %68, %35
  call void @llvm.lifetime.end.p0(i64 4, ptr %10) #3
  br label %74

73:                                               ; preds = %4
  store ptr null, ptr %5, align 8
  br label %74

74:                                               ; preds = %73, %72
  %75 = load ptr, ptr %5, align 8
  ret ptr %75
}