; Function Attrs: nounwind uwtable
define ptr @av_tree_find(ptr noundef readonly captures(address_is_null) %0, ptr noundef %1, ptr noundef %2, ptr noundef %3) local_unnamed_addr #0 {
  %.not4356 = icmp eq ptr %0, null
  br i1 %.not4356, label %.loopexit, label %.lr.ph

.lr.ph:                                           ; preds = %4, %.split.split.us
  %.tr36.ph58 = phi ptr [ null, %.split.split.us ], [ %3, %4 ]
  %.tr.ph57 = phi ptr [ %10, %.split.split.us ], [ %0, %4 ]
  %.not32 = icmp eq ptr %.tr36.ph58, null
  br i1 %.not32, label %.lr.ph.split.us, label %.lr.ph.split

.lr.ph.split.us:                                  ; preds = %.lr.ph
  %5 = getelementptr inbounds nuw i8, ptr %.tr.ph57, i64 16
  %6 = load ptr, ptr %5, align 8, !tbaa !4
  %7 = tail call i32 %2(ptr noundef %1, ptr noundef %6) #3
  %.not30.us = icmp eq i32 %7, 0
  br i1 %.not30.us, label %.split46.thread.loopexit, label %.split.split.us

.split.split.us:                                  ; preds = %.lr.ph.split.us
  %isnotneg = icmp sgt i32 %7, -1
  %8 = zext i1 %isnotneg to i64
  %9 = getelementptr inbounds nuw [2 x ptr], ptr %.tr.ph57, i64 0, i64 %8
  %10 = load ptr, ptr %9, align 8, !tbaa !10
  %.not43 = icmp eq ptr %10, null
  br i1 %.not43, label %.loopexit, label %.lr.ph

.lr.ph.split:                                     ; preds = %.lr.ph, %.split25
  %.tr44 = phi ptr [ %20, %.split25 ], [ %.tr.ph57, %.lr.ph ]
  %11 = getelementptr inbounds nuw i8, ptr %.tr44, i64 16
  %12 = load ptr, ptr %11, align 8, !tbaa !4
  %13 = tail call i32 %2(ptr noundef %1, ptr noundef %12) #3
  %.not30 = icmp eq i32 %13, 0
  br i1 %.not30, label %.split46, label %.split25

.split25:                                         ; preds = %.lr.ph.split
  %14 = load ptr, ptr %11, align 8, !tbaa !4
  %15 = lshr i32 %13, 31
  %16 = zext nneg i32 %15 to i64
  %17 = getelementptr inbounds nuw ptr, ptr %.tr36.ph58, i64 %16
  store ptr %14, ptr %17, align 8, !tbaa !12
  %isnotneg33 = icmp sgt i32 %13, -1
  %18 = zext i1 %isnotneg33 to i64
  %19 = getelementptr inbounds nuw [2 x ptr], ptr %.tr44, i64 0, i64 %18
  %20 = load ptr, ptr %19, align 8, !tbaa !10
  %.not = icmp eq ptr %20, null
  br i1 %.not, label %.loopexit, label %.lr.ph.split

.split46:                                         ; preds = %.lr.ph.split
  %21 = load ptr, ptr %.tr44, align 8, !tbaa !10
  %22 = tail call ptr @av_tree_find(ptr noundef %21, ptr noundef %1, ptr noundef %2, ptr noundef nonnull %.tr36.ph58)
  %23 = getelementptr inbounds nuw i8, ptr %.tr44, i64 8
  %24 = load ptr, ptr %23, align 8, !tbaa !10
  %25 = tail call ptr @av_tree_find(ptr noundef %24, ptr noundef %1, ptr noundef %2, ptr noundef nonnull %.tr36.ph58)
  br label %.split46.thread

.split46.thread.loopexit:                         ; preds = %.lr.ph.split.us
  %26 = getelementptr inbounds nuw i8, ptr %.tr.ph57, i64 16
  br label %.split46.thread

.split46.thread:                                  ; preds = %.split46.thread.loopexit, %.split46
  %.us-phi4771 = phi ptr [ %11, %.split46 ], [ %26, %.split46.thread.loopexit ]
  %27 = load ptr, ptr %.us-phi4771, align 8, !tbaa !4
  br label %.loopexit

.loopexit:                                        ; preds = %.split.split.us, %.split25, %4, %.split46.thread
  %.1 = phi ptr [ %27, %.split46.thread ], [ null, %4 ], [ null, %.split25 ], [ null, %.split.split.us ]
  ret ptr %.1
}